; Function Attrs: nounwind uwtable
define ptr @l_Lean_log___at_Lean_Core_wrapAsyncAsSnapshot___spec__13(ptr noundef %0, i8 noundef zeroext %1, ptr noundef %2, ptr noundef %3, ptr noundef %4) local_unnamed_addr #1 {
  %6 = getelementptr inbounds nuw i8, ptr %2, i64 48
  %7 = load ptr, ptr %6, align 8, !tbaa !9
  %8 = ptrtoint ptr %7 to i64
  %9 = and i64 %8, 1
  %.not = icmp eq i64 %9, 0
  br i1 %.not, label %10, label %lean_inc.exit

10:                                               ; preds = %5
  %.val.i = load i32, ptr %7, align 4, !tbaa !4
  %11 = icmp sgt i32 %.val.i, 0
  br i1 %11, label %12, label %14, !prof !11

12:                                               ; preds = %10
  %13 = add nuw i32 %.val.i, 1
  store i32 %13, ptr %7, align 4, !tbaa !4
  br label %17

14:                                               ; preds = %10
  %.not.i10 = icmp eq i32 %.val.i, 0
  br i1 %.not.i10, label %17, label %15

15:                                               ; preds = %14
  tail call void @lean_inc_ref_cold(ptr noundef nonnull %7) #7
  br label %17

lean_inc.exit:                                    ; preds = %5
  %16 = tail call ptr @l_Lean_logAt___at_Lean_Core_wrapAsyncAsSnapshot___spec__14(ptr noundef %7, ptr noundef %0, i8 noundef zeroext %1, i8 noundef zeroext 0, ptr noundef nonnull %2, ptr noundef %3, ptr noundef %4)
  br label %lean_dec.exit

17:                                               ; preds = %15, %14, %12
  %18 = tail call ptr @l_Lean_logAt___at_Lean_Core_wrapAsyncAsSnapshot___spec__14(ptr noundef nonnull %7, ptr noundef %0, i8 noundef zeroext %1, i8 noundef zeroext 0, ptr noundef nonnull %2, ptr noundef %3, ptr noundef %4)
  %19 = load i32, ptr %7, align 4, !tbaa !4
  %20 = icmp sgt i32 %19, 1
  br i1 %20, label %21, label %23, !prof !11

21:                                               ; preds = %17
  %22 = add nsw i32 %19, -1
  store i32 %22, ptr %7, align 4, !tbaa !4
  br label %lean_dec.exit

23:                                               ; preds = %17
  %.not.i = icmp eq i32 %19, 0
  br i1 %.not.i, label %lean_dec.exit, label %24

24:                                               ; preds = %23
  tail call void @lean_dec_ref_cold(ptr noundef nonnull %7) #7
  br label %lean_dec.exit

lean_dec.exit:                                    ; preds = %24, %23, %21, %lean_inc.exit
  %25 = phi ptr [ %16, %lean_inc.exit ], [ %18, %21 ], [ %18, %23 ], [ %18, %24 ]
  ret ptr %25
}